target datalayout = "e-m:e-p270:32:32-p271:32:32-p272:64:64-i64:64-i128:128-f80:128-n8:16:32:64-S128"
target triple = "x86_64-pc-linux-gnu"

%struct.AVChannelLayout = type { i32, i32, %union.anon.1, ptr }
%union.anon.1 = type { i64 }
%struct.AVRational = type { i32, i32 }
%struct.AVFilterContext = type { ptr, ptr, ptr, ptr, ptr, i32, ptr, ptr, i32, ptr, ptr, i32, i32, ptr, ptr, ptr, ptr, i32, ptr, i32, i32 }
%struct.ColorizeContext = type { ptr, float, float, float, float, i32, [3 x i32], [4 x i32], [4 x i32], [2 x ptr] }
%struct.AVFrame = type { [8 x ptr], [8 x i32], ptr, i32, i32, i32, i32, i32, %struct.AVRational, i64, i64, %struct.AVRational, i32, ptr, i32, i32, [8 x ptr], ptr, i32, ptr, i32, i32, i32, i32, i32, i32, i32, i64, ptr, i32, ptr, ptr, i64, i64, i64, i64, ptr, %struct.AVChannelLayout, i64 }

; Function Attrs: nounwind uwtable
define internal i32 @colorize_slice16(ptr noundef %0, ptr noundef %1, i32 noundef %2, i32 noundef %3) #1 {
  %5 = alloca ptr, align 8
  %6 = alloca ptr, align 8
  %7 = alloca i32, align 4
  %8 = alloca i32, align 4
  %9 = alloca ptr, align 8
  %10 = alloca ptr, align 8
  %11 = alloca i32, align 4
  %12 = alloca i32, align 4
  %13 = alloca i32, align 4
  %14 = alloca i32, align 4
  %15 = alloca i64, align 8
  %16 = alloca i64, align 8
  %17 = alloca ptr, align 8
  %18 = alloca ptr, align 8
  %19 = alloca i32, align 4
  %20 = alloca i32, align 4
  %21 = alloca i32, align 4
  %22 = alloca i32, align 4
  %23 = alloca i32, align 4
  store ptr %0, ptr %5, align 8, !tbaa !23
  store ptr %1, ptr %6, align 8, !tbaa !56
  store i32 %2, ptr %7, align 4, !tbaa !43
  store i32 %3, ptr %8, align 4, !tbaa !43
  call void @llvm.lifetime.start.p0(i64 8, ptr %9) #8
  %24 = load ptr, ptr %5, align 8, !tbaa !23
  %25 = getelementptr inbounds nuw %struct.AVFilterContext, ptr %24, i32 0, i32 9
  %26 = load ptr, ptr %25, align 8, !tbaa !24
  store ptr %26, ptr %9, align 8, !tbaa !34
  call void @llvm.lifetime.start.p0(i64 8, ptr %10) #8
  %27 = load ptr, ptr %6, align 8, !tbaa !56
  store ptr %27, ptr %10, align 8, !tbaa !9
  call void @llvm.lifetime.start.p0(i64 4, ptr %11) #8
  %28 = load ptr, ptr %9, align 8, !tbaa !34
  %29 = getelementptr inbounds nuw %struct.ColorizeContext, ptr %28, i32 0, i32 7
  %30 = getelementptr inbounds [4 x i32], ptr %29, i64 0, i64 1
  %31 = load i32, ptr %30, align 4, !tbaa !43
  store i32 %31, ptr %11, align 4, !tbaa !43
  call void @llvm.lifetime.start.p0(i64 4, ptr %12) #8
  %32 = load ptr, ptr %9, align 8, !tbaa !34
  %33 = getelementptr inbounds nuw %struct.ColorizeContext, ptr %32, i32 0, i32 8
  %34 = getelementptr inbounds [4 x i32], ptr %33, i64 0, i64 1
  %35 = load i32, ptr %34, align 4, !tbaa !43
  store i32 %35, ptr %12, align 4, !tbaa !43
  call void @llvm.lifetime.start.p0(i64 4, ptr %13) #8
  %36 = load i32, ptr %12, align 4, !tbaa !43
  %37 = load i32, ptr %7, align 4, !tbaa !43
  %38 = mul nsw i32 %36, %37
  %39 = load i32, ptr %8, align 4, !tbaa !43
  %40 = sdiv i32 %38, %39
  store i32 %40, ptr %13, align 4, !tbaa !43
  call void @llvm.lifetime.start.p0(i64 4, ptr %14) #8
  %41 = load i32, ptr %12, align 4, !tbaa !43
  %42 = load i32, ptr %7, align 4, !tbaa !43
  %43 = add nsw i32 %42, 1
  %44 = mul nsw i32 %41, %43
  %45 = load i32, ptr %8, align 4, !tbaa !43
  %46 = sdiv i32 %44, %45
  store i32 %46, ptr %14, align 4, !tbaa !43
  call void @llvm.lifetime.start.p0(i64 8, ptr %15) #8
  %47 = load ptr, ptr %10, align 8, !tbaa !9
  %48 = getelementptr inbounds nuw %struct.AVFrame, ptr %47, i32 0, i32 1
  %49 = getelementptr inbounds [8 x i32], ptr %48, i64 0, i64 1
  %50 = load i32, ptr %49, align 4, !tbaa !43
  %51 = sdiv i32 %50, 2
  %52 = sext i32 %51 to i64
  store i64 %52, ptr %15, align 8, !tbaa !61
  call void @llvm.lifetime.start.p0(i64 8, ptr %16) #8
  %53 = load ptr, ptr %10, align 8, !tbaa !9
  %54 = getelementptr inbounds nuw %struct.AVFrame, ptr %53, i32 0, i32 1
  %55 = getelementptr inbounds [8 x i32], ptr %54, i64 0, i64 2
  %56 = load i32, ptr %55, align 8, !tbaa !43
  %57 = sdiv i32 %56, 2
  %58 = sext i32 %57 to i64
  store i64 %58, ptr %16, align 8, !tbaa !61
  call void @llvm.lifetime.start.p0(i64 8, ptr %17) #8
  %59 = load ptr, ptr %10, align 8, !tbaa !9
  %60 = getelementptr inbounds nuw %struct.AVFrame, ptr %59, i32 0, i32 0
  %61 = getelementptr inbounds [8 x ptr], ptr %60, i64 0, i64 1
  %62 = load ptr, ptr %61, align 8, !tbaa !62
  %63 = load i32, ptr %13, align 4, !tbaa !43
  %64 = sext i32 %63 to i64
  %65 = load i64, ptr %15, align 8, !tbaa !61
  %66 = mul nsw i64 %64, %65
  %67 = getelementptr inbounds i16, ptr %62, i64 %66
  store ptr %67, ptr %17, align 8, !tbaa !68
  call void @llvm.lifetime.start.p0(i64 8, ptr %18) #8
  %68 = load ptr, ptr %10, align 8, !tbaa !9
  %69 = getelementptr inbounds nuw %struct.AVFrame, ptr %68, i32 0, i32 0
  %70 = getelementptr inbounds [8 x ptr], ptr %69, i64 0, i64 2
  %71 = load ptr, ptr %70, align 8, !tbaa !62
  %72 = load i32, ptr %13, align 4, !tbaa !43
  %73 = sext i32 %72 to i64
  %74 = load i64, ptr %16, align 8, !tbaa !61
  %75 = mul nsw i64 %73, %74
  %76 = getelementptr inbounds i16, ptr %71, i64 %75
  store ptr %76, ptr %18, align 8, !tbaa !68
  call void @llvm.lifetime.start.p0(i64 4, ptr %19) #8
  %77 = load ptr, ptr %9, align 8, !tbaa !34
  %78 = getelementptr inbounds nuw %struct.ColorizeContext, ptr %77, i32 0, i32 6
  %79 = getelementptr inbounds [3 x i32], ptr %78, i64 0, i64 1
  %80 = load i32, ptr %79, align 4, !tbaa !43
  store i32 %80, ptr %19, align 4, !tbaa !43
  call void @llvm.lifetime.start.p0(i64 4, ptr %20) #8
  %81 = load ptr, ptr %9, align 8, !tbaa !34
  %82 = getelementptr inbounds nuw %struct.ColorizeContext, ptr %81, i32 0, i32 6
  %83 = getelementptr inbounds [3 x i32], ptr %82, i64 0, i64 2
  %84 = load i32, ptr %83, align 4, !tbaa !43
  store i32 %84, ptr %20, align 4, !tbaa !43
  call void @llvm.lifetime.start.p0(i64 4, ptr %21) #8
  %85 = load i32, ptr %13, align 4, !tbaa !43
  store i32 %85, ptr %21, align 4, !tbaa !43
  br label %86

86:                                               ; preds = %120, %4
  %87 = load i32, ptr %21, align 4, !tbaa !43
  %88 = load i32, ptr %14, align 4, !tbaa !43
  %89 = icmp slt i32 %87, %88
  br i1 %89, label %91, label %90

90:                                               ; preds = %86
  store i32 2, ptr %22, align 4
  call void @llvm.lifetime.end.p0(i64 4, ptr %21) #8
  br label %123

91:                                               ; preds = %86
  call void @llvm.lifetime.start.p0(i64 4, ptr %23) #8
  store i32 0, ptr %23, align 4, !tbaa !43
  br label %92

92:                                               ; preds = %110, %91
  %93 = load i32, ptr %23, align 4, !tbaa !43
  %94 = load i32, ptr %11, align 4, !tbaa !43
  %95 = icmp slt i32 %93, %94
  br i1 %95, label %97, label %96

96:                                               ; preds = %92
  store i32 5, ptr %22, align 4
  call void @llvm.lifetime.end.p0(i64 4, ptr %23) #8
  br label %113

97:                                               ; preds = %92
  %98 = load i32, ptr %19, align 4, !tbaa !43
  %99 = trunc i32 %98 to i16
  %100 = load ptr, ptr %17, align 8, !tbaa !68
  %101 = load i32, ptr %23, align 4, !tbaa !43
  %102 = sext i32 %101 to i64
  %103 = getelementptr inbounds i16, ptr %100, i64 %102
  store i16 %99, ptr %103, align 2, !tbaa !70
  %104 = load i32, ptr %20, align 4, !tbaa !43
  %105 = trunc i32 %104 to i16
  %106 = load ptr, ptr %18, align 8, !tbaa !68
  %107 = load i32, ptr %23, align 4, !tbaa !43
  %108 = sext i32 %107 to i64
  %109 = getelementptr inbounds i16, ptr %106, i64 %108
  store i16 %105, ptr %109, align 2, !tbaa !70
  br label %110

110:                                              ; preds = %97
  %111 = load i32, ptr %23, align 4, !tbaa !43
  %112 = add nsw i32 %111, 1
  store i32 %112, ptr %23, align 4, !tbaa !43
  br label %92, !llvm.loop !76

113:                                              ; preds = %96
  %114 = load i64, ptr %15, align 8, !tbaa !61
  %115 = load ptr, ptr %17, align 8, !tbaa !68
  %116 = getelementptr inbounds i16, ptr %115, i64 %114
  store ptr %116, ptr %17, align 8, !tbaa !68
  %117 = load i64, ptr %16, align 8, !tbaa !61
  %118 = load ptr, ptr %18, align 8, !tbaa !68
  %119 = getelementptr inbounds i16, ptr %118, i64 %117
  store ptr %119, ptr %18, align 8, !tbaa !68
  br label %120

120:                                              ; preds = %113
  %121 = load i32, ptr %21, align 4, !tbaa !43
  %122 = add nsw i32 %121, 1
  store i32 %122, ptr %21, align 4, !tbaa !43
  br label %86, !llvm.loop !77

123:                                              ; preds = %90
  store i32 1, ptr %22, align 4
  call void @llvm.lifetime.end.p0(i64 4, ptr %20) #8
  call void @llvm.lifetime.end.p0(i64 4, ptr %19) #8
  call void @llvm.lifetime.end.p0(i64 8, ptr %18) #8
  call void @llvm.lifetime.end.p0(i64 8, ptr %17) #8
  call void @llvm.lifetime.end.p0(i64 8, ptr %16) #8
  call void @llvm.lifetime.end.p0(i64 8, ptr %15) #8
  call void @llvm.lifetime.end.p0(i64 4, ptr %14) #8
  call void @llvm.lifetime.end.p0(i64 4, ptr %13) #8
  call void @llvm.lifetime.end.p0(i64 4, ptr %12) #8
  call void @llvm.lifetime.end.p0(i64 4, ptr %11) #8
  call void @llvm.lifetime.end.p0(i64 8, ptr %10) #8
  call void @llvm.lifetime.end.p0(i64 8, ptr %9) #8
  ret i32 0
}