; Function Attrs: nofree norecurse nosync nounwind memory(readwrite, inaccessiblemem: none) uwtable
define internal noundef i32 @colorize_slice16(ptr noundef readonly captures(none) %0, ptr noundef readonly captures(none) %1, i32 noundef %2, i32 noundef %3) #5 {
  %5 = getelementptr inbounds nuw i8, ptr %0, i64 72
  %6 = load ptr, ptr %5, align 8, !tbaa !19
  %7 = getelementptr inbounds nuw i8, ptr %6, i64 44
  %8 = load i32, ptr %7, align 4, !tbaa !35
  %9 = getelementptr inbounds nuw i8, ptr %6, i64 60
  %10 = load i32, ptr %9, align 4, !tbaa !35
  %11 = mul nsw i32 %10, %2
  %12 = sdiv i32 %11, %3
  %13 = add nsw i32 %2, 1
  %14 = mul nsw i32 %10, %13
  %15 = sdiv i32 %14, %3
  %16 = getelementptr inbounds nuw i8, ptr %1, i64 68
  %17 = load i32, ptr %16, align 4, !tbaa !35
  %18 = sdiv i32 %17, 2
  %19 = sext i32 %18 to i64
  %20 = getelementptr inbounds nuw i8, ptr %1, i64 72
  %21 = load i32, ptr %20, align 8, !tbaa !35
  %22 = sdiv i32 %21, 2
  %23 = sext i32 %22 to i64
  %24 = icmp slt i32 %12, %15
  br i1 %24, label %.preheader.lr.ph, label %._crit_edge43

.preheader.lr.ph:                                 ; preds = %4
  %25 = getelementptr inbounds nuw i8, ptr %6, i64 36
  %26 = load i32, ptr %25, align 4, !tbaa !35
  %27 = getelementptr inbounds nuw i8, ptr %6, i64 32
  %28 = load i32, ptr %27, align 4, !tbaa !35
  %29 = icmp sgt i32 %8, 0
  %30 = trunc i32 %28 to i16
  %31 = trunc i32 %26 to i16
  br i1 %29, label %.preheader.us.preheader, label %._crit_edge43

.preheader.us.preheader:                          ; preds = %.preheader.lr.ph
  %32 = getelementptr inbounds nuw i8, ptr %1, i64 8
  %33 = load ptr, ptr %32, align 8, !tbaa !50
  %34 = sext i32 %12 to i64
  %35 = mul nsw i64 %19, %34
  %36 = getelementptr inbounds i16, ptr %33, i64 %35
  %37 = getelementptr inbounds nuw i8, ptr %1, i64 16
  %38 = load ptr, ptr %37, align 8, !tbaa !50
  %39 = mul nsw i64 %23, %34
  %40 = getelementptr inbounds i16, ptr %38, i64 %39
  %wide.trip.count = zext nneg i32 %8 to i64
  br label %.preheader.us

.preheader.us:                                    ; preds = %.preheader.us.preheader, %._crit_edge.us
  %.03642.us = phi i32 [ %46, %._crit_edge.us ], [ %12, %.preheader.us.preheader ]
  %.03741.us = phi ptr [ %44, %._crit_edge.us ], [ %36, %.preheader.us.preheader ]
  %.03840.us = phi ptr [ %45, %._crit_edge.us ], [ %40, %.preheader.us.preheader ]
  br label %41

41:                                               ; preds = %.preheader.us, %41
  %indvars.iv = phi i64 [ 0, %.preheader.us ], [ %indvars.iv.next, %41 ]
  %42 = getelementptr inbounds nuw i16, ptr %.03741.us, i64 %indvars.iv
  store i16 %30, ptr %42, align 2, !tbaa !55
  %43 = getelementptr inbounds nuw i16, ptr %.03840.us, i64 %indvars.iv
  store i16 %31, ptr %43, align 2, !tbaa !55
  %indvars.iv.next = add nuw nsw i64 %indvars.iv, 1
  %exitcond.not = icmp eq i64 %indvars.iv.next, %wide.trip.count
  br i1 %exitcond.not, label %._crit_edge.us, label %41, !llvm.loop !61

._crit_edge.us:                                   ; preds = %41
  %44 = getelementptr inbounds i16, ptr %.03741.us, i64 %19
  %45 = getelementptr inbounds i16, ptr %.03840.us, i64 %23
  %46 = add nsw i32 %.03642.us, 1
  %exitcond46.not = icmp eq i32 %46, %15
  br i1 %exitcond46.not, label %._crit_edge43, label %.preheader.us, !llvm.loop !62

._crit_edge43:                                    ; preds = %._crit_edge.us, %.preheader.lr.ph, %4
  ret i32 0
}